target datalayout = "e-m:e-p270:32:32-p271:32:32-p272:64:64-i64:64-i128:128-f80:128-n8:16:32:64-S128"
target triple = "x86_64-pc-linux-gnu"

%struct.onas_event_queue_node = type { ptr, ptr, ptr }

@g_thpool = internal global ptr null, align 8
@g_onas_event_queue_head = internal global ptr null, align 8
@.str.4 = private unnamed_addr constant [39 x i8] c"ClamScanQueue: onas_scan_queue_exit()\0A\00", align 1
@.str.5 = private unnamed_addr constant [24 x i8] c"ClamScanQueue: stopped\0A\00", align 1

; Function Attrs: nounwind uwtable
define internal void @onas_destroy_event_queue_node(ptr noundef %0) #0 {
  %2 = alloca ptr, align 8
  store ptr %0, ptr %2, align 8
  %3 = load ptr, ptr %2, align 8
  %4 = icmp eq ptr null, %3
  br i1 %4, label %5, label %6

5:                                                ; preds = %1
  br label %14

6:                                                ; preds = %1
  %7 = load ptr, ptr %2, align 8
  %8 = getelementptr inbounds %struct.onas_event_queue_node, ptr %7, i32 0, i32 0
  store ptr null, ptr %8, align 8
  %9 = load ptr, ptr %2, align 8
  %10 = getelementptr inbounds %struct.onas_event_queue_node, ptr %9, i32 0, i32 1
  store ptr null, ptr %10, align 8
  %11 = load ptr, ptr %2, align 8
  %12 = getelementptr inbounds %struct.onas_event_queue_node, ptr %11, i32 0, i32 2
  store ptr null, ptr %12, align 8
  %13 = load ptr, ptr %2, align 8
  call void @free(ptr noundef %13) #8
  store ptr null, ptr %2, align 8
  br label %14

14:                                               ; preds = %6, %5
  ret void
}

; Function Attrs: nounwind uwtable
define internal void @onas_destroy_event_queue() #0 {
  %1 = alloca ptr, align 8
  %2 = alloca ptr, align 8
  %3 = load ptr, ptr @g_onas_event_queue_head, align 8
  %4 = icmp eq ptr null, %3
  br i1 %4, label %5, label %6

5:                                                ; preds = %0
  br label %25

6:                                                ; preds = %0
  %7 = load ptr, ptr @g_onas_event_queue_head, align 8
  store ptr %7, ptr %1, align 8
  %8 = load ptr, ptr %1, align 8
  %9 = getelementptr inbounds %struct.onas_event_queue_node, ptr %8, i32 0, i32 0
  %10 = load ptr, ptr %9, align 8
  store ptr %10, ptr %2, align 8
  br label %11

11:                                               ; preds = %21, %6
  %12 = load ptr, ptr %1, align 8
  call void @onas_destroy_event_queue_node(ptr noundef %12)
  %13 = load ptr, ptr %2, align 8
  store ptr %13, ptr %1, align 8
  %14 = load ptr, ptr %1, align 8
  %15 = icmp ne ptr %14, null
  br i1 %15, label %16, label %20

16:                                               ; preds = %11
  %17 = load ptr, ptr %1, align 8
  %18 = getelementptr inbounds %struct.onas_event_queue_node, ptr %17, i32 0, i32 0
  %19 = load ptr, ptr %18, align 8
  store ptr %19, ptr %2, align 8
  br label %20

20:                                               ; preds = %16, %11
  br label %21

21:                                               ; preds = %20
  %22 = load ptr, ptr %1, align 8
  %23 = icmp ne ptr %22, null
  br i1 %23, label %11, label %24

24:                                               ; preds = %21
  br label %25

25:                                               ; preds = %24, %5
  ret void
}

; Function Attrs: nounwind uwtable
define internal void @onas_scan_queue_exit(ptr noundef %0) #0 {
  %2 = alloca ptr, align 8
  store ptr %0, ptr %2, align 8
  %3 = call i32 (i32, ptr, ...) @logg(i32 noundef 2, ptr noundef @.str.4)
  %4 = load ptr, ptr @g_thpool, align 8
  %5 = icmp ne ptr %4, null
  br i1 %5, label %6, label %9

6:                                                ; preds = %1
  %7 = load ptr, ptr @g_thpool, align 8
  call void @thpool_wait(ptr noundef %7)
  %8 = load ptr, ptr @g_thpool, align 8
  call void @thpool_destroy(ptr noundef %8)
  store ptr null, ptr @g_thpool, align 8
  br label %9

9:                                                ; preds = %6, %1
  call void @onas_destroy_event_queue()
  %10 = call i32 (i32, ptr, ...) @logg(i32 noundef 0, ptr noundef @.str.5)
  ret void
}