; Function Attrs: nounwind uwtable
define internal fastcc void @onas_scan_queue_exit() unnamed_addr #4 {
  %1 = tail call i32 (i32, ptr, ...) @logg(i32 noundef 2, ptr noundef nonnull @.str.4) #9
  %2 = load ptr, ptr @g_thpool, align 8
  %.not = icmp eq ptr %2, null
  br i1 %.not, label %5, label %3

3:                                                ; preds = %0
  tail call void @thpool_wait(ptr noundef nonnull %2) #9
  %4 = load ptr, ptr @g_thpool, align 8
  tail call void @thpool_destroy(ptr noundef %4) #9
  store ptr null, ptr @g_thpool, align 8
  br label %5

5:                                                ; preds = %3, %0
  %6 = load ptr, ptr @g_onas_event_queue_head, align 8
  %7 = icmp eq ptr %6, null
  br i1 %7, label %onas_destroy_event_queue.exit, label %onas_destroy_event_queue_node.exit.i

onas_destroy_event_queue_node.exit.i:             ; preds = %5, %onas_destroy_event_queue_node.exit.i
  %.06.i = phi ptr [ %.0.i, %onas_destroy_event_queue_node.exit.i ], [ %6, %5 ]
  %.0.i = load ptr, ptr %.06.i, align 8
  tail call void @free(ptr noundef nonnull %.06.i) #9
  %.not.i = icmp eq ptr %.0.i, null
  br i1 %.not.i, label %onas_destroy_event_queue.exit, label %onas_destroy_event_queue_node.exit.i

onas_destroy_event_queue.exit:                    ; preds = %onas_destroy_event_queue_node.exit.i, %5
  %8 = tail call i32 (i32, ptr, ...) @logg(i32 noundef 0, ptr noundef nonnull @.str.5) #9
  ret void
}